target datalayout = "e-m:e-p270:32:32-p271:32:32-p272:64:64-i64:64-i128:128-f80:128-n8:16:32:64-S128"
target triple = "x86_64-pc-linux-gnu"

%"class.duckdb::BaseStatistics" = type { %"struct.duckdb::LogicalType", i8, i8, i64, %union.anon, %"class.duckdb::unique_ptr" }
%"struct.duckdb::LogicalType" = type { i8, i8, %"class.duckdb::shared_ptr" }
%"class.duckdb::shared_ptr" = type { %"class.std::shared_ptr" }
%"class.std::shared_ptr" = type { %"class.std::__shared_ptr" }
%"class.std::__shared_ptr" = type { ptr, %"class.std::__shared_count" }
%"class.std::__shared_count" = type { ptr }
%union.anon = type { %"struct.duckdb::NumericStatsData" }
%"struct.duckdb::NumericStatsData" = type { i8, i8, %"struct.duckdb::NumericValueUnion", %"struct.duckdb::NumericValueUnion" }
%"struct.duckdb::NumericValueUnion" = type { %"union.duckdb::NumericValueUnion::Val" }
%"union.duckdb::NumericValueUnion::Val" = type { %"struct.duckdb::hugeint_t" }
%"struct.duckdb::hugeint_t" = type { i64, i64 }
%"class.duckdb::unique_ptr" = type { %"class.std::unique_ptr" }
%"class.std::unique_ptr" = type { %"struct.std::__uniq_ptr_data" }
%"struct.std::__uniq_ptr_data" = type { %"class.std::__uniq_ptr_impl" }
%"class.std::__uniq_ptr_impl" = type { %"class.std::tuple" }
%"class.std::tuple" = type { %"struct.std::_Tuple_impl" }
%"struct.std::_Tuple_impl" = type { %"struct.std::_Head_base.1" }
%"struct.std::_Head_base.1" = type { ptr }

; Function Attrs: inlinehint mustprogress nounwind uwtable
define linkonce_odr noundef zeroext i8 @_ZNK6duckdb11LogicalType12InternalTypeEv(ptr noundef nonnull align 8 dereferenceable(24) %0) #5 comdat align 2 {
  %2 = alloca ptr, align 8
  store ptr %0, ptr %2, align 8, !tbaa !10
  %3 = load ptr, ptr %2, align 8
  %4 = getelementptr inbounds nuw %"struct.duckdb::LogicalType", ptr %3, i32 0, i32 1
  %5 = load i8, ptr %4, align 1, !tbaa !37
  ret i8 %5
}

; Function Attrs: mustprogress uwtable
define void @_ZN6duckdb14BaseStatistics12SetHasNoNullEv(ptr noundef nonnull align 8 dereferenceable(88) %0) #4 align 2 {
  %2 = alloca ptr, align 8
  %3 = alloca i64, align 8
  store ptr %0, ptr %2, align 8, !tbaa !3
  %4 = load ptr, ptr %2, align 8
  %5 = getelementptr inbounds nuw %"class.duckdb::BaseStatistics", ptr %4, i32 0, i32 2
  store i8 1, ptr %5, align 1, !tbaa !46
  %6 = getelementptr inbounds nuw %"class.duckdb::BaseStatistics", ptr %4, i32 0, i32 0
  %7 = call noundef zeroext i8 @_ZNK6duckdb11LogicalType12InternalTypeEv(ptr noundef nonnull align 8 dereferenceable(24) %6)
  %8 = icmp eq i8 %7, 24
  br i1 %8, label %9, label %23

9:                                                ; preds = %1
  call void @llvm.lifetime.start.p0(i64 8, ptr %3) #3
  store i64 0, ptr %3, align 8, !tbaa !40
  br label %10

10:                                               ; preds = %19, %9
  %11 = load i64, ptr %3, align 8, !tbaa !40
  %12 = getelementptr inbounds nuw %"class.duckdb::BaseStatistics", ptr %4, i32 0, i32 0
  %13 = call noundef i64 @_ZN6duckdb10StructType13GetChildCountERKNS_11LogicalTypeE(ptr noundef nonnull align 8 dereferenceable(24) %12)
  %14 = icmp ult i64 %11, %13
  br i1 %14, label %16, label %15

15:                                               ; preds = %10
  call void @llvm.lifetime.end.p0(i64 8, ptr %3) #3
  br label %22

16:                                               ; preds = %10
  %17 = load i64, ptr %3, align 8, !tbaa !40
  %18 = call noundef nonnull align 8 dereferenceable(88) ptr @_ZN6duckdb11StructStats13GetChildStatsERNS_14BaseStatisticsEm(ptr noundef nonnull align 8 dereferenceable(88) %4, i64 noundef %17)
  call void @_ZN6duckdb14BaseStatistics12SetHasNoNullEv(ptr noundef nonnull align 8 dereferenceable(88) %18)
  br label %19

19:                                               ; preds = %16
  %20 = load i64, ptr %3, align 8, !tbaa !40
  %21 = add i64 %20, 1
  store i64 %21, ptr %3, align 8, !tbaa !40
  br label %10, !llvm.loop !69

22:                                               ; preds = %15
  br label %23

23:                                               ; preds = %22, %1
  ret void
}