; Function Attrs: mustprogress uwtable
define void @_ZN6duckdb14BaseStatistics12SetHasNoNullEv(ptr noundef nonnull align 8 dereferenceable(88) initializes((25, 26)) %0) local_unnamed_addr #3 align 2 {
  %2 = getelementptr inbounds nuw i8, ptr %0, i64 25
  store i8 1, ptr %2, align 1, !tbaa !52
  %3 = getelementptr inbounds nuw i8, ptr %0, i64 1
  %4 = load i8, ptr %3, align 1, !tbaa !29
  %5 = icmp eq i8 %4, 24
  br i1 %5, label %.preheader, label %.loopexit

.preheader:                                       ; preds = %1
  %6 = tail call noundef i64 @_ZN6duckdb10StructType13GetChildCountERKNS_11LogicalTypeE(ptr noundef nonnull align 8 dereferenceable(24) %0)
  %.not = icmp eq i64 %6, 0
  br i1 %.not, label %.loopexit, label %.lr.ph

.lr.ph:                                           ; preds = %.preheader, %.lr.ph
  %.03 = phi i64 [ %8, %.lr.ph ], [ 0, %.preheader ]
  %7 = tail call noundef nonnull align 8 dereferenceable(88) ptr @_ZN6duckdb11StructStats13GetChildStatsERNS_14BaseStatisticsEm(ptr noundef nonnull align 8 dereferenceable(88) %0, i64 noundef %.03)
  tail call void @_ZN6duckdb14BaseStatistics12SetHasNoNullEv(ptr noundef nonnull align 8 dereferenceable(88) %7)
  %8 = add nuw i64 %.03, 1
  %9 = tail call noundef i64 @_ZN6duckdb10StructType13GetChildCountERKNS_11LogicalTypeE(ptr noundef nonnull align 8 dereferenceable(24) %0)
  %10 = icmp ult i64 %8, %9
  br i1 %10, label %.lr.ph, label %.loopexit, !llvm.loop !84

.loopexit:                                        ; preds = %.lr.ph, %.preheader, %1
  ret void
}